target datalayout = "e-m:e-p270:32:32-p271:32:32-p272:64:64-i64:64-i128:128-f80:128-n8:16:32:64-S128"
target triple = "x86_64-pc-linux-gnu"

%struct.strbuf = type { i64, i64, ptr }
%struct.repository_format = type { i32, i32, ptr, i32, i32, i32, i32, i32, i32, i32, ptr, %struct.string_list, %struct.string_list }
%struct.string_list = type { ptr, i64, i64, i8, ptr }

@.str.9 = private unnamed_addr constant [15 x i8] c"GIT_COMMON_DIR\00", align 1
@inside_work_tree = internal global i32 -1, align 4
@is_bare_repository_cfg = external global i32, align 4
@git_work_tree_cfg = external global ptr, align 8
@__const.check_repository_format_gently.sb = private unnamed_addr constant %struct.strbuf { i64 0, i64 0, ptr @strbuf_slopbuf }, align 8
@__const.check_repository_format_gently.err = private unnamed_addr constant %struct.strbuf { i64 0, i64 0, ptr @strbuf_slopbuf }, align 8
@.str.140 = private unnamed_addr constant [8 x i8] c"/config\00", align 1
@.str.141 = private unnamed_addr constant [3 x i8] c"%s\00", align 1
@repository_format_precious_objects = external global i32, align 4
@.str.142 = private unnamed_addr constant [19 x i8] c"%s/config.worktree\00", align 1

; Function Attrs: inlinehint nounwind uwtable
define internal void @strbuf_addstr(ptr noundef %0, ptr noundef %1) #2 {
  %3 = alloca ptr, align 8
  %4 = alloca ptr, align 8
  store ptr %0, ptr %3, align 8, !tbaa !26
  store ptr %1, ptr %4, align 8, !tbaa !4
  %5 = load ptr, ptr %3, align 8, !tbaa !26
  %6 = load ptr, ptr %4, align 8, !tbaa !4
  %7 = load ptr, ptr %4, align 8, !tbaa !4
  %8 = call i64 @strlen(ptr noundef %7) #14
  call void @strbuf_add(ptr noundef %5, ptr noundef %6, i64 noundef %8)
  ret void
}

; Function Attrs: nounwind uwtable
define dso_local i32 @get_common_dir(ptr noundef %0, ptr noundef %1) #0 {
  %3 = alloca i32, align 4
  %4 = alloca ptr, align 8
  %5 = alloca ptr, align 8
  %6 = alloca ptr, align 8
  %7 = alloca i32, align 4
  store ptr %0, ptr %4, align 8, !tbaa !26
  store ptr %1, ptr %5, align 8, !tbaa !4
  call void @llvm.lifetime.start.p0(i64 8, ptr %6) #13
  %8 = call ptr @getenv(ptr noundef @.str.9) #13
  store ptr %8, ptr %6, align 8, !tbaa !4
  %9 = load ptr, ptr %6, align 8, !tbaa !4
  %10 = icmp ne ptr %9, null
  br i1 %10, label %11, label %14

11:                                               ; preds = %2
  %12 = load ptr, ptr %4, align 8, !tbaa !26
  %13 = load ptr, ptr %6, align 8, !tbaa !4
  call void @strbuf_addstr(ptr noundef %12, ptr noundef %13)
  store i32 1, ptr %3, align 4
  store i32 1, ptr %7, align 4
  br label %18

14:                                               ; preds = %2
  %15 = load ptr, ptr %4, align 8, !tbaa !26
  %16 = load ptr, ptr %5, align 8, !tbaa !4
  %17 = call i32 @get_common_dir_noenv(ptr noundef %15, ptr noundef %16)
  store i32 %17, ptr %3, align 4
  store i32 1, ptr %7, align 4
  br label %18

18:                                               ; preds = %14, %11
  call void @llvm.lifetime.end.p0(i64 8, ptr %6) #13
  %19 = load i32, ptr %3, align 4
  ret i32 %19
}

; Function Attrs: nounwind uwtable
define internal i32 @check_repository_format_gently(ptr noundef %0, ptr noundef %1, ptr noundef %2) #0 {
  %4 = alloca i32, align 4
  %5 = alloca ptr, align 8
  %6 = alloca ptr, align 8
  %7 = alloca ptr, align 8
  %8 = alloca %struct.strbuf, align 8
  %9 = alloca %struct.strbuf, align 8
  %10 = alloca i32, align 4
  %11 = alloca i32, align 4
  store ptr %0, ptr %5, align 8, !tbaa !4
  store ptr %1, ptr %6, align 8, !tbaa !45
  store ptr %2, ptr %7, align 8, !tbaa !11
  call void @llvm.lifetime.start.p0(i64 24, ptr %8) #13
  call void @llvm.memcpy.p0.p0.i64(ptr align 8 %8, ptr align 8 @__const.check_repository_format_gently.sb, i64 24, i1 false)
  call void @llvm.lifetime.start.p0(i64 24, ptr %9) #13
  call void @llvm.memcpy.p0.p0.i64(ptr align 8 %9, ptr align 8 @__const.check_repository_format_gently.err, i64 24, i1 false)
  call void @llvm.lifetime.start.p0(i64 4, ptr %10) #13
  %12 = load ptr, ptr %5, align 8, !tbaa !4
  %13 = call i32 @get_common_dir(ptr noundef %8, ptr noundef %12)
  store i32 %13, ptr %10, align 4, !tbaa !9
  call void @strbuf_addstr(ptr noundef %8, ptr noundef @.str.140)
  %14 = load ptr, ptr %6, align 8, !tbaa !45
  %15 = getelementptr inbounds nuw %struct.strbuf, ptr %8, i32 0, i32 2
  %16 = load ptr, ptr %15, align 8, !tbaa !18
  %17 = call i32 @read_repository_format(ptr noundef %14, ptr noundef %16)
  call void @strbuf_release(ptr noundef %8)
  %18 = load ptr, ptr %6, align 8, !tbaa !45
  %19 = getelementptr inbounds nuw %struct.repository_format, ptr %18, i32 0, i32 0
  %20 = load i32, ptr %19, align 8, !tbaa !37
  %21 = icmp slt i32 %20, 0
  br i1 %21, label %22, label %23

22:                                               ; preds = %3
  store i32 0, ptr %4, align 4
  store i32 1, ptr %11, align 4
  br label %84

23:                                               ; preds = %3
  %24 = load ptr, ptr %6, align 8, !tbaa !45
  %25 = call i32 @verify_repository_format(ptr noundef %24, ptr noundef %9)
  %26 = icmp slt i32 %25, 0
  br i1 %26, label %27, label %37

27:                                               ; preds = %23
  %28 = load ptr, ptr %7, align 8, !tbaa !11
  %29 = icmp ne ptr %28, null
  br i1 %29, label %30, label %34

30:                                               ; preds = %27
  %31 = getelementptr inbounds nuw %struct.strbuf, ptr %9, i32 0, i32 2
  %32 = load ptr, ptr %31, align 8, !tbaa !18
  call void (ptr, ...) @warning(ptr noundef @.str.141, ptr noundef %32)
  call void @strbuf_release(ptr noundef %9)
  %33 = load ptr, ptr %7, align 8, !tbaa !11
  store i32 -1, ptr %33, align 4, !tbaa !9
  store i32 -1, ptr %4, align 4
  store i32 1, ptr %11, align 4
  br label %84

34:                                               ; preds = %27
  %35 = getelementptr inbounds nuw %struct.strbuf, ptr %9, i32 0, i32 2
  %36 = load ptr, ptr %35, align 8, !tbaa !18
  call void (ptr, ...) @die(ptr noundef @.str.141, ptr noundef %36) #15
  unreachable

37:                                               ; preds = %23
  %38 = load ptr, ptr %6, align 8, !tbaa !45
  %39 = getelementptr inbounds nuw %struct.repository_format, ptr %38, i32 0, i32 1
  %40 = load i32, ptr %39, align 4, !tbaa !105
  store i32 %40, ptr @repository_format_precious_objects, align 4, !tbaa !9
  %41 = load ptr, ptr %6, align 8, !tbaa !45
  %42 = getelementptr inbounds nuw %struct.repository_format, ptr %41, i32 0, i32 11
  call void @string_list_clear(ptr noundef %42, i32 noundef 0)
  %43 = load ptr, ptr %6, align 8, !tbaa !45
  %44 = getelementptr inbounds nuw %struct.repository_format, ptr %43, i32 0, i32 12
  call void @string_list_clear(ptr noundef %44, i32 noundef 0)
  %45 = load ptr, ptr %6, align 8, !tbaa !45
  %46 = getelementptr inbounds nuw %struct.repository_format, ptr %45, i32 0, i32 3
  %47 = load i32, ptr %46, align 8, !tbaa !98
  %48 = icmp ne i32 %47, 0
  br i1 %48, label %49, label %55

49:                                               ; preds = %37
  %50 = load ptr, ptr %5, align 8, !tbaa !4
  call void (ptr, ptr, ...) @strbuf_addf(ptr noundef %8, ptr noundef @.str.142, ptr noundef %50)
  %51 = getelementptr inbounds nuw %struct.strbuf, ptr %8, i32 0, i32 2
  %52 = load ptr, ptr %51, align 8, !tbaa !18
  %53 = load ptr, ptr %6, align 8, !tbaa !45
  %54 = call i32 @git_config_from_file(ptr noundef @read_worktree_config, ptr noundef %52, ptr noundef %53)
  call void @strbuf_release(ptr noundef %8)
  store i32 0, ptr %10, align 4, !tbaa !9
  br label %55

55:                                               ; preds = %49, %37
  %56 = load i32, ptr %10, align 4, !tbaa !9
  %57 = icmp ne i32 %56, 0
  br i1 %57, label %83, label %58

58:                                               ; preds = %55
  %59 = load ptr, ptr %6, align 8, !tbaa !45
  %60 = getelementptr inbounds nuw %struct.repository_format, ptr %59, i32 0, i32 5
  %61 = load i32, ptr %60, align 8, !tbaa !106
  %62 = icmp ne i32 %61, -1
  br i1 %62, label %63, label %71

63:                                               ; preds = %58
  %64 = load ptr, ptr %6, align 8, !tbaa !45
  %65 = getelementptr inbounds nuw %struct.repository_format, ptr %64, i32 0, i32 5
  %66 = load i32, ptr %65, align 8, !tbaa !106
  store i32 %66, ptr @is_bare_repository_cfg, align 4, !tbaa !9
  %67 = load i32, ptr @is_bare_repository_cfg, align 4, !tbaa !9
  %68 = icmp eq i32 %67, 1
  br i1 %68, label %69, label %70

69:                                               ; preds = %63
  store i32 -1, ptr @inside_work_tree, align 4, !tbaa !9
  br label %70

70:                                               ; preds = %69, %63
  br label %71

71:                                               ; preds = %70, %58
  %72 = load ptr, ptr %6, align 8, !tbaa !45
  %73 = getelementptr inbounds nuw %struct.repository_format, ptr %72, i32 0, i32 10
  %74 = load ptr, ptr %73, align 8, !tbaa !51
  %75 = icmp ne ptr %74, null
  br i1 %75, label %76, label %82

76:                                               ; preds = %71
  %77 = load ptr, ptr @git_work_tree_cfg, align 8, !tbaa !4
  call void @free(ptr noundef %77) #13
  %78 = load ptr, ptr %6, align 8, !tbaa !45
  %79 = getelementptr inbounds nuw %struct.repository_format, ptr %78, i32 0, i32 10
  %80 = load ptr, ptr %79, align 8, !tbaa !51
  %81 = call ptr @xstrdup(ptr noundef %80)
  store ptr %81, ptr @git_work_tree_cfg, align 8, !tbaa !4
  store i32 -1, ptr @inside_work_tree, align 4, !tbaa !9
  br label %82

82:                                               ; preds = %76, %71
  br label %83

83:                                               ; preds = %82, %55
  store i32 0, ptr %4, align 4
  store i32 1, ptr %11, align 4
  br label %84

84:                                               ; preds = %83, %30, %22
  call void @llvm.lifetime.end.p0(i64 4, ptr %10) #13
  call void @llvm.lifetime.end.p0(i64 24, ptr %9) #13
  call void @llvm.lifetime.end.p0(i64 24, ptr %8) #13
  %85 = load i32, ptr %4, align 4
  ret i32 %85
}