; Function Attrs: nounwind uwtable
define internal fastcc range(i32 -1, 1) i32 @check_repository_format_gently(ptr noundef %0, ptr noundef %1, ptr noundef writeonly %2) unnamed_addr #0 {
  %4 = alloca %struct.strbuf, align 8
  %5 = alloca %struct.strbuf, align 8
  call void @llvm.lifetime.start.p0(i64 24, ptr nonnull %4) #25
  call void @llvm.memcpy.p0.p0.i64(ptr noundef nonnull align 8 dereferenceable(24) %4, ptr noundef nonnull align 8 dereferenceable(24) @__const.create_object_directory.path, i64 24, i1 false)
  call void @llvm.lifetime.start.p0(i64 24, ptr nonnull %5) #25
  call void @llvm.memcpy.p0.p0.i64(ptr noundef nonnull align 8 dereferenceable(24) %5, ptr noundef nonnull align 8 dereferenceable(24) @__const.create_object_directory.path, i64 24, i1 false)
  %6 = tail call ptr @getenv(ptr noundef nonnull @.str.9) #25
  %.not.i = icmp eq ptr %6, null
  br i1 %.not.i, label %9, label %7

7:                                                ; preds = %3
  %8 = tail call i64 @strlen(ptr noundef nonnull dereferenceable(1) %6) #24
  call void @strbuf_add(ptr noundef nonnull %4, ptr noundef nonnull %6, i64 noundef %8) #25
  br label %get_common_dir.exit

9:                                                ; preds = %3
  %10 = call i32 @get_common_dir_noenv(ptr noundef nonnull %4, ptr noundef %0)
  %11 = icmp eq i32 %10, 0
  br label %get_common_dir.exit

get_common_dir.exit:                              ; preds = %7, %9
  %.0.i = phi i1 [ false, %7 ], [ %11, %9 ]
  call void @strbuf_add(ptr noundef nonnull %4, ptr noundef nonnull @.str.140, i64 noundef 7) #25
  %12 = getelementptr inbounds nuw i8, ptr %4, i64 16
  %13 = load ptr, ptr %12, align 8, !tbaa !14
  %14 = call i32 @read_repository_format(ptr noundef %1, ptr noundef %13)
  call void @strbuf_release(ptr noundef nonnull %4) #25
  %15 = load i32, ptr %1, align 8, !tbaa !29
  %16 = icmp slt i32 %15, 0
  br i1 %16, label %48, label %17

17:                                               ; preds = %get_common_dir.exit
  %18 = call i32 @verify_repository_format(ptr noundef nonnull %1, ptr noundef nonnull %5)
  %19 = icmp slt i32 %18, 0
  br i1 %19, label %20, label %25

20:                                               ; preds = %17
  %.not23 = icmp eq ptr %2, null
  %21 = getelementptr inbounds nuw i8, ptr %5, i64 16
  %22 = load ptr, ptr %21, align 8, !tbaa !14
  br i1 %.not23, label %24, label %23

23:                                               ; preds = %20
  call void (ptr, ...) @warning(ptr noundef nonnull @.str.141, ptr noundef %22) #25
  call void @strbuf_release(ptr noundef nonnull %5) #25
  br label %.sink.split

24:                                               ; preds = %20
  call void (ptr, ...) @die(ptr noundef nonnull @.str.141, ptr noundef %22) #26
  unreachable

25:                                               ; preds = %17
  %26 = getelementptr inbounds nuw i8, ptr %1, i64 4
  %27 = load i32, ptr %26, align 4, !tbaa !46
  store i32 %27, ptr @repository_format_precious_objects, align 4, !tbaa !7
  %28 = getelementptr inbounds nuw i8, ptr %1, i64 56
  call void @string_list_clear(ptr noundef nonnull %28, i32 noundef 0) #25
  %29 = getelementptr inbounds nuw i8, ptr %1, i64 96
  call void @string_list_clear(ptr noundef nonnull %29, i32 noundef 0) #25
  %30 = getelementptr inbounds nuw i8, ptr %1, i64 16
  %31 = load i32, ptr %30, align 8, !tbaa !47
  %.not = icmp eq i32 %31, 0
  br i1 %.not, label %34, label %.thread

.thread:                                          ; preds = %25
  call void (ptr, ptr, ...) @strbuf_addf(ptr noundef nonnull %4, ptr noundef nonnull @.str.142, ptr noundef %0) #25
  %32 = load ptr, ptr %12, align 8, !tbaa !14
  %33 = call i32 @git_config_from_file(ptr noundef nonnull @read_worktree_config, ptr noundef %32, ptr noundef nonnull %1) #25
  call void @strbuf_release(ptr noundef nonnull %4) #25
  br label %35

34:                                               ; preds = %25
  br i1 %.0.i, label %35, label %48

35:                                               ; preds = %.thread, %34
  %36 = getelementptr inbounds nuw i8, ptr %1, i64 24
  %37 = load i32, ptr %36, align 8, !tbaa !56
  %.not21 = icmp eq i32 %37, -1
  br i1 %.not21, label %41, label %38

38:                                               ; preds = %35
  store i32 %37, ptr @is_bare_repository_cfg, align 4, !tbaa !7
  %39 = icmp eq i32 %37, 1
  br i1 %39, label %40, label %41

40:                                               ; preds = %38
  store i32 -1, ptr @inside_work_tree, align 4, !tbaa !7
  br label %41

41:                                               ; preds = %38, %40, %35
  %42 = getelementptr inbounds nuw i8, ptr %1, i64 48
  %43 = load ptr, ptr %42, align 8, !tbaa !36
  %.not22 = icmp eq ptr %43, null
  br i1 %.not22, label %48, label %44

44:                                               ; preds = %41
  %45 = load ptr, ptr @git_work_tree_cfg, align 8, !tbaa !58
  call void @free(ptr noundef %45) #25
  %46 = load ptr, ptr %42, align 8, !tbaa !36
  %47 = call ptr @xstrdup(ptr noundef %46) #25
  store ptr %47, ptr @git_work_tree_cfg, align 8, !tbaa !58
  br label %.sink.split

.sink.split:                                      ; preds = %23, %44
  %inside_work_tree.sink = phi ptr [ @inside_work_tree, %44 ], [ %2, %23 ]
  %.017.ph = phi i32 [ 0, %44 ], [ -1, %23 ]
  store i32 -1, ptr %inside_work_tree.sink, align 4, !tbaa !7
  br label %48

48:                                               ; preds = %.sink.split, %34, %41, %get_common_dir.exit
  %.017 = phi i32 [ 0, %get_common_dir.exit ], [ 0, %41 ], [ 0, %34 ], [ %.017.ph, %.sink.split ]
  call void @llvm.lifetime.end.p0(i64 24, ptr nonnull %5) #25
  call void @llvm.lifetime.end.p0(i64 24, ptr nonnull %4) #25
  ret i32 %.017
}